; Function Attrs: nounwind uwtable
define dso_local { i64, i32 } @AlterForeignServerOwner(ptr noundef %0, i32 noundef %1) local_unnamed_addr #0 {
  %3 = tail call ptr @table_open(i32 noundef 1417, i32 noundef 3) #9
  %4 = ptrtoint ptr %0 to i64
  %5 = tail call ptr @SearchSysCacheCopy(i32 noundef 31, i64 noundef %4, i64 noundef 0, i64 noundef 0, i64 noundef 0) #9
  %.not = icmp eq ptr %5, null
  br i1 %.not, label %6, label %10

6:                                                ; preds = %2
  %7 = tail call zeroext i1 @errstart_cold(i32 noundef 21, ptr noundef null) #11
  tail call void @llvm.assume(i1 %7)
  %8 = tail call i32 @errcode(i32 noundef 67137668) #9
  %9 = tail call i32 (ptr, ...) @errmsg(ptr noundef nonnull @.str.6, ptr noundef %0) #9
  tail call void @errfinish(ptr noundef nonnull @.str.1, i32 noundef 430, ptr noundef nonnull @__func__.AlterForeignServerOwner) #9
  unreachable

10:                                               ; preds = %2
  %11 = getelementptr i8, ptr %5, i64 16
  %.val = load ptr, ptr %11, align 8
  %12 = getelementptr inbounds nuw i8, ptr %.val, i64 22
  %13 = load i8, ptr %12, align 2
  %14 = zext i8 %13 to i64
  %15 = getelementptr inbounds nuw i8, ptr %.val, i64 %14
  %16 = load i32, ptr %15, align 4
  tail call fastcc void @AlterForeignServerOwner_internal(ptr noundef %3, ptr noundef %5, i32 noundef %1)
  tail call void @heap_freetuple(ptr noundef nonnull %5) #9
  tail call void @table_close(ptr noundef %3, i32 noundef 3) #9
  %.sroa.211.0.insert.ext = zext i32 %16 to i64
  %.sroa.211.0.insert.shift = shl nuw i64 %.sroa.211.0.insert.ext, 32
  %.sroa.010.0.insert.insert = or disjoint i64 %.sroa.211.0.insert.shift, 1417
  %.fca.0.insert = insertvalue { i64, i32 } poison, i64 %.sroa.010.0.insert.insert, 0
  %.fca.1.insert = insertvalue { i64, i32 } %.fca.0.insert, i32 0, 1
  ret { i64, i32 } %.fca.1.insert
}